target datalayout = "e-m:e-p270:32:32-p271:32:32-p272:64:64-i64:64-i128:128-f80:128-n8:16:32:64-S128"
target triple = "x86_64-unknown-linux-gnu"

%"class.icu_75::SharedBreakIterator" = type { %"class.icu_75::SharedObject", ptr }
%"class.icu_75::SharedObject" = type { %"class.icu_75::UObject", i32, %"struct.std::atomic", ptr }
%"class.icu_75::UObject" = type { ptr }
%"struct.std::atomic" = type { %"struct.std::__atomic_base" }
%"struct.std::__atomic_base" = type { i32 }

$_ZN6icu_7512SharedObjectC2Ev = comdat any

$_ZN6icu_757UObjectC2Ev = comdat any

$_ZNSt6atomicIiEC2Ei = comdat any

$_ZNSt13__atomic_baseIiEC2Ei = comdat any

@_ZTVN6icu_7519SharedBreakIteratorE = unnamed_addr constant { [5 x ptr] } { [5 x ptr] [ptr null, ptr @_ZTIN6icu_7519SharedBreakIteratorE, ptr @_ZN6icu_7519SharedBreakIteratorD1Ev, ptr @_ZN6icu_7519SharedBreakIteratorD0Ev, ptr @_ZNK6icu_757UObject17getDynamicClassIDEv] }, align 8
@_ZTVN10__cxxabiv120__si_class_type_infoE = external global [0 x ptr]
@_ZTSN6icu_7519SharedBreakIteratorE = constant [31 x i8] c"N6icu_7519SharedBreakIteratorE\00", align 1
@_ZTIN6icu_7512SharedObjectE = external constant ptr
@_ZTIN6icu_7519SharedBreakIteratorE = constant { ptr, ptr, ptr } { ptr getelementptr inbounds (ptr, ptr @_ZTVN10__cxxabiv120__si_class_type_infoE, i64 2), ptr @_ZTSN6icu_7519SharedBreakIteratorE, ptr @_ZTIN6icu_7512SharedObjectE }, align 8
@_ZTVN6icu_7512SharedObjectE = external unnamed_addr constant { [5 x ptr] }, align 8
@_ZTVN6icu_757UObjectE = external unnamed_addr constant { [5 x ptr] }, align 8

@_ZN6icu_7519SharedBreakIteratorC1EPNS_13BreakIteratorE = unnamed_addr alias void (ptr, ptr), ptr @_ZN6icu_7519SharedBreakIteratorC2EPNS_13BreakIteratorE
@_ZN6icu_7519SharedBreakIteratorD1Ev = unnamed_addr alias void (ptr), ptr @_ZN6icu_7519SharedBreakIteratorD2Ev

; Function Attrs: mustprogress uwtable
define void @_ZN6icu_7519SharedBreakIteratorC2EPNS_13BreakIteratorE(ptr noundef nonnull align 8 dereferenceable(32) %this, ptr noundef %biToAdopt) unnamed_addr #0 align 2 {
entry:
  %this.addr = alloca ptr, align 8
  %biToAdopt.addr = alloca ptr, align 8
  store ptr %this, ptr %this.addr, align 8
  store ptr %biToAdopt, ptr %biToAdopt.addr, align 8
  %this1 = load ptr, ptr %this.addr, align 8
  call void @_ZN6icu_7512SharedObjectC2Ev(ptr noundef nonnull align 8 dereferenceable(24) %this1)
  store ptr getelementptr inbounds ({ [5 x ptr] }, ptr @_ZTVN6icu_7519SharedBreakIteratorE, i32 0, i32 0, i32 2), ptr %this1, align 8
  %ptr = getelementptr inbounds %"class.icu_75::SharedBreakIterator", ptr %this1, i32 0, i32 1
  %0 = load ptr, ptr %biToAdopt.addr, align 8
  store ptr %0, ptr %ptr, align 8
  ret void
}

; Function Attrs: mustprogress nounwind uwtable
define linkonce_odr void @_ZN6icu_7512SharedObjectC2Ev(ptr noundef nonnull align 8 dereferenceable(24) %this) unnamed_addr #1 comdat align 2 {
entry:
  %this.addr = alloca ptr, align 8
  store ptr %this, ptr %this.addr, align 8
  %this1 = load ptr, ptr %this.addr, align 8
  call void @_ZN6icu_757UObjectC2Ev(ptr noundef nonnull align 8 dereferenceable(8) %this1) #4
  store ptr getelementptr inbounds ({ [5 x ptr] }, ptr @_ZTVN6icu_7512SharedObjectE, i32 0, i32 0, i32 2), ptr %this1, align 8
  %softRefCount = getelementptr inbounds %"class.icu_75::SharedObject", ptr %this1, i32 0, i32 1
  store i32 0, ptr %softRefCount, align 8
  %hardRefCount = getelementptr inbounds %"class.icu_75::SharedObject", ptr %this1, i32 0, i32 2
  call void @_ZNSt6atomicIiEC2Ei(ptr noundef nonnull align 4 dereferenceable(4) %hardRefCount, i32 noundef 0) #4
  %cachePtr = getelementptr inbounds %"class.icu_75::SharedObject", ptr %this1, i32 0, i32 3
  store ptr null, ptr %cachePtr, align 8
  ret void
}

; Function Attrs: mustprogress nounwind uwtable
define void @_ZN6icu_7519SharedBreakIteratorD2Ev(ptr noundef nonnull align 8 dereferenceable(32) %this) unnamed_addr #1 align 2 {
entry:
  %this.addr = alloca ptr, align 8
  store ptr %this, ptr %this.addr, align 8
  %this1 = load ptr, ptr %this.addr, align 8
  store ptr getelementptr inbounds ({ [5 x ptr] }, ptr @_ZTVN6icu_7519SharedBreakIteratorE, i32 0, i32 0, i32 2), ptr %this1, align 8
  %ptr = getelementptr inbounds %"class.icu_75::SharedBreakIterator", ptr %this1, i32 0, i32 1
  %0 = load ptr, ptr %ptr, align 8
  %isnull = icmp eq ptr %0, null
  br i1 %isnull, label %delete.end, label %delete.notnull

delete.notnull:                                   ; preds = %entry
  %vtable = load ptr, ptr %0, align 8
  %vfn = getelementptr inbounds ptr, ptr %vtable, i64 1
  %1 = load ptr, ptr %vfn, align 8
  call void %1(ptr noundef nonnull align 8 dereferenceable(479) %0) #4
  br label %delete.end

delete.end:                                       ; preds = %delete.notnull, %entry
  call void @_ZN6icu_7512SharedObjectD2Ev(ptr noundef nonnull align 8 dereferenceable(24) %this1) #4
  ret void
}

; Function Attrs: nounwind
declare void @_ZN6icu_7512SharedObjectD2Ev(ptr noundef nonnull align 8 dereferenceable(24)) unnamed_addr #2

; Function Attrs: mustprogress nounwind uwtable
define void @_ZN6icu_7519SharedBreakIteratorD0Ev(ptr noundef nonnull align 8 dereferenceable(32) %this) unnamed_addr #1 align 2 {
entry:
  %this.addr = alloca ptr, align 8
  store ptr %this, ptr %this.addr, align 8
  %this1 = load ptr, ptr %this.addr, align 8
  call void @_ZN6icu_7519SharedBreakIteratorD1Ev(ptr noundef nonnull align 8 dereferenceable(32) %this1) #4
  call void @_ZN6icu_757UMemorydlEPv(ptr noundef %this1) #4
  ret void
}

; Function Attrs: nounwind
declare void @_ZN6icu_757UMemorydlEPv(ptr noundef) #2

declare noundef ptr @_ZNK6icu_757UObject17getDynamicClassIDEv(ptr noundef nonnull align 8 dereferenceable(8)) unnamed_addr #3

; Function Attrs: mustprogress nounwind uwtable
define linkonce_odr void @_ZN6icu_757UObjectC2Ev(ptr noundef nonnull align 8 dereferenceable(8) %this) unnamed_addr #1 comdat align 2 {
entry:
  %this.addr = alloca ptr, align 8
  store ptr %this, ptr %this.addr, align 8
  %this1 = load ptr, ptr %this.addr, align 8
  store ptr getelementptr inbounds ({ [5 x ptr] }, ptr @_ZTVN6icu_757UObjectE, i32 0, i32 0, i32 2), ptr %this1, align 8
  ret void
}

; Function Attrs: mustprogress nounwind uwtable
define linkonce_odr void @_ZNSt6atomicIiEC2Ei(ptr noundef nonnull align 4 dereferenceable(4) %this, i32 noundef %__i) unnamed_addr #1 comdat align 2 {
entry:
  %this.addr = alloca ptr, align 8
  %__i.addr = alloca i32, align 4
  store ptr %this, ptr %this.addr, align 8
  store i32 %__i, ptr %__i.addr, align 4
  %this1 = load ptr, ptr %this.addr, align 8
  %0 = load i32, ptr %__i.addr, align 4
  call void @_ZNSt13__atomic_baseIiEC2Ei(ptr noundef nonnull align 4 dereferenceable(4) %this1, i32 noundef %0) #4
  ret void
}

; Function Attrs: mustprogress nounwind uwtable
define linkonce_odr void @_ZNSt13__atomic_baseIiEC2Ei(ptr noundef nonnull align 4 dereferenceable(4) %this, i32 noundef %__i) unnamed_addr #1 comdat align 2 {
entry:
  %this.addr = alloca ptr, align 8
  %__i.addr = alloca i32, align 4
  store ptr %this, ptr %this.addr, align 8
  store i32 %__i, ptr %__i.addr, align 4
  %this1 = load ptr, ptr %this.addr, align 8
  %_M_i = getelementptr inbounds %"struct.std::__atomic_base", ptr %this1, i32 0, i32 0
  %0 = load i32, ptr %__i.addr, align 4
  store i32 %0, ptr %_M_i, align 4
  ret void
}


!llvm.module.flags = !{!0, !1, !2, !3}

!0 = !{i32 1, !"wchar_size", i32 4}
!1 = !{i32 8, !"PIC Level", i32 2}
!2 = !{i32 7, !"uwtable", i32 2}
!3 = !{i32 7, !"frame-pointer", i32 2}
